target datalayout = "e-m:e-p270:32:32-p271:32:32-p272:64:64-i64:64-i128:128-f80:128-n8:16:32:64-S128"
target triple = "x86_64-pc-linux-gnu"

%struct._dfilter_loc = type { i64, i64 }
%struct.dfwork_t = type { ptr, i32, ptr, i32, ptr, ptr, ptr, ptr, i32, i32, ptr, ptr, ptr, ptr, ptr, ptr, i32 }
%struct._GString = type { ptr, i64, i64 }

@.str = private unnamed_addr constant [8 x i8] c"DFilter\00", align 1
@.str.1 = private unnamed_addr constant [24 x i8] c"epan/dfilter/semcheck.c\00", align 1
@.str.3 = private unnamed_addr constant [31 x i8] c"assertion \22not reached\22 failed\00", align 1
@__func__.dfilter_fvalue_from_string = private unnamed_addr constant [27 x i8] c"dfilter_fvalue_from_string\00", align 1

; Function Attrs: null_pointer_is_valid sspstrong uwtable
define hidden zeroext i1 @dfilter_fvalue_from_string(ptr noundef %0, i32 noundef %1, ptr noundef %2, ptr noundef %3) #0 {
  %5 = alloca i1, align 1
  %6 = alloca ptr, align 8
  %7 = alloca i32, align 4
  %8 = alloca ptr, align 8
  %9 = alloca ptr, align 8
  %10 = alloca ptr, align 8
  %11 = alloca ptr, align 8
  %12 = alloca ptr, align 8
  %13 = alloca i32, align 4
  %14 = alloca i32, align 4
  %15 = alloca %struct._dfilter_loc, align 8
  store ptr %0, ptr %6, align 8
  store i32 %1, ptr %7, align 4
  store ptr %2, ptr %8, align 8
  store ptr %3, ptr %9, align 8
  call void @llvm.lifetime.start.p0(i64 8, ptr %10) #8
  call void @llvm.lifetime.start.p0(i64 8, ptr %11) #8
  %16 = load ptr, ptr %8, align 8
  %17 = call ptr @stnode_string(ptr noundef %16)
  store ptr %17, ptr %11, align 8
  call void @llvm.lifetime.start.p0(i64 8, ptr %12) #8
  store ptr null, ptr %12, align 8
  call void @llvm.lifetime.start.p0(i64 4, ptr %13) #8
  %18 = load i32, ptr %7, align 4
  %19 = load ptr, ptr %11, align 8
  %20 = getelementptr inbounds nuw %struct._GString, ptr %19, i32 0, i32 0
  %21 = load ptr, ptr %20, align 8
  %22 = load ptr, ptr %11, align 8
  %23 = getelementptr inbounds nuw %struct._GString, ptr %22, i32 0, i32 1
  %24 = load i64, ptr %23, align 8
  %25 = call ptr @fvalue_from_string(i32 noundef %18, ptr noundef %21, i64 noundef %24, ptr noundef %12)
  store ptr %25, ptr %10, align 8
  %26 = load ptr, ptr %10, align 8
  %27 = icmp ne ptr %26, null
  br i1 %27, label %28, label %32

28:                                               ; preds = %4
  %29 = load ptr, ptr %12, align 8
  call void @g_free(ptr noundef %29)
  %30 = load ptr, ptr %8, align 8
  %31 = load ptr, ptr %10, align 8
  call void @stnode_replace(ptr noundef %30, i32 noundef 9, ptr noundef %31)
  store i1 false, ptr %5, align 1
  store i32 1, ptr %14, align 4
  br label %87

32:                                               ; preds = %4
  br label %33

33:                                               ; preds = %32
  %34 = load ptr, ptr %12, align 8
  %35 = icmp ne ptr %34, null
  br i1 %35, label %36, label %46

36:                                               ; preds = %33
  %37 = load ptr, ptr %6, align 8
  %38 = getelementptr inbounds nuw %struct.dfwork_t, ptr %37, i32 0, i32 0
  %39 = load ptr, ptr %38, align 8
  %40 = icmp eq ptr %39, null
  br i1 %40, label %41, label %46

41:                                               ; preds = %36
  %42 = load ptr, ptr %12, align 8
  %43 = call ptr @df_error_new(i32 noundef -1, ptr noundef %42, ptr noundef null)
  %44 = load ptr, ptr %6, align 8
  %45 = getelementptr inbounds nuw %struct.dfwork_t, ptr %44, i32 0, i32 0
  store ptr %43, ptr %45, align 8
  br label %48

46:                                               ; preds = %36, %33
  %47 = load ptr, ptr %12, align 8
  call void @g_free(ptr noundef %47)
  br label %48

48:                                               ; preds = %46, %41
  br label %49

49:                                               ; preds = %48
  br label %50

50:                                               ; preds = %49
  %51 = load ptr, ptr %9, align 8
  %52 = icmp ne ptr %51, null
  br i1 %52, label %53, label %69

53:                                               ; preds = %50
  %54 = load ptr, ptr %6, align 8
  %55 = load ptr, ptr %9, align 8
  %56 = load ptr, ptr %11, align 8
  %57 = getelementptr inbounds nuw %struct._GString, ptr %56, i32 0, i32 0
  %58 = load ptr, ptr %57, align 8
  %59 = load ptr, ptr %8, align 8
  %60 = call i32 @mk_fvalue_from_val_string(ptr noundef %54, ptr noundef %55, ptr noundef %58, ptr noundef %59)
  store i32 %60, ptr %13, align 4
  %61 = load i32, ptr %13, align 4
  %62 = icmp ne i32 %61, 2
  br i1 %62, label %63, label %68

63:                                               ; preds = %53
  %64 = load ptr, ptr %6, align 8
  %65 = getelementptr inbounds nuw %struct.dfwork_t, ptr %64, i32 0, i32 0
  call void @df_error_free(ptr noundef %65)
  %66 = load i32, ptr %13, align 4
  %67 = icmp eq i32 %66, 5
  store i1 %67, ptr %5, align 1
  store i32 1, ptr %14, align 4
  br label %87

68:                                               ; preds = %53
  br label %69

69:                                               ; preds = %68, %50
  %70 = load ptr, ptr %6, align 8
  %71 = load ptr, ptr %8, align 8
  %72 = call { i64, i64 } @stnode_location(ptr noundef %71)
  %73 = getelementptr inbounds nuw { i64, i64 }, ptr %15, i32 0, i32 0
  %74 = extractvalue { i64, i64 } %72, 0
  store i64 %74, ptr %73, align 8
  %75 = getelementptr inbounds nuw { i64, i64 }, ptr %15, i32 0, i32 1
  %76 = extractvalue { i64, i64 } %72, 1
  store i64 %76, ptr %75, align 8
  %77 = getelementptr inbounds nuw { i64, i64 }, ptr %15, i32 0, i32 0
  %78 = load i64, ptr %77, align 8
  %79 = getelementptr inbounds nuw { i64, i64 }, ptr %15, i32 0, i32 1
  %80 = load i64, ptr %79, align 8
  call void @dfw_set_error_location(ptr noundef %70, i64 %78, i64 %80)
  br label %81

81:                                               ; preds = %69
  br label %82

82:                                               ; preds = %81
  br label %83

83:                                               ; preds = %82
  br label %84

84:                                               ; preds = %83
  call void @except_throw(i64 noundef 1, i64 noundef 5, ptr noundef null) #7
  unreachable

85:                                               ; No predecessors!
  br label %86

86:                                               ; preds = %85
  call void (ptr, i32, ptr, i64, ptr, ptr, ...) @ws_log_fatal_full(ptr noundef @.str, i32 noundef 7, ptr noundef @.str.1, i64 noundef 286, ptr noundef @__func__.dfilter_fvalue_from_string, ptr noundef @.str.3) #7
  unreachable

87:                                               ; preds = %63, %28
  call void @llvm.lifetime.end.p0(i64 4, ptr %13) #8
  call void @llvm.lifetime.end.p0(i64 8, ptr %12) #8
  call void @llvm.lifetime.end.p0(i64 8, ptr %11) #8
  call void @llvm.lifetime.end.p0(i64 8, ptr %10) #8
  %88 = load i1, ptr %5, align 1
  ret i1 %88
}