; Function Attrs: null_pointer_is_valid sspstrong uwtable
define hidden zeroext i1 @dfilter_fvalue_from_string(ptr noundef %0, i32 noundef %1, ptr noundef %2, ptr noundef readonly captures(address_is_null) %3) local_unnamed_addr #0 {
  %5 = alloca ptr, align 8
  %6 = tail call ptr @stnode_string(ptr noundef %2)
  call void @llvm.lifetime.start.p0(i64 8, ptr nonnull %5) #8
  store ptr null, ptr %5, align 8
  %7 = load ptr, ptr %6, align 8
  %8 = getelementptr inbounds nuw i8, ptr %6, i64 8
  %9 = load i64, ptr %8, align 8
  %10 = call ptr @fvalue_from_string(i32 noundef %1, ptr noundef %7, i64 noundef %9, ptr noundef nonnull %5)
  %.not = icmp eq ptr %10, null
  %11 = load ptr, ptr %5, align 8
  br i1 %.not, label %13, label %12

12:                                               ; preds = %4
  call void @g_free(ptr noundef %11)
  call void @stnode_replace(ptr noundef %2, i32 noundef 9, ptr noundef nonnull %10)
  br label %30

13:                                               ; preds = %4
  %.not23 = icmp eq ptr %11, null
  br i1 %.not23, label %19, label %14

14:                                               ; preds = %13
  %15 = load ptr, ptr %0, align 8
  %16 = icmp eq ptr %15, null
  br i1 %16, label %17, label %19

17:                                               ; preds = %14
  %18 = call ptr @df_error_new(i32 noundef -1, ptr noundef nonnull %11, ptr noundef null)
  store ptr %18, ptr %0, align 8
  br label %20

19:                                               ; preds = %14, %13
  call void @g_free(ptr noundef %11)
  br label %20

20:                                               ; preds = %19, %17
  %.not24 = icmp eq ptr %3, null
  br i1 %.not24, label %26, label %21

21:                                               ; preds = %20
  %22 = load ptr, ptr %6, align 8
  %23 = call fastcc i32 @mk_fvalue_from_val_string(ptr noundef %0, ptr noundef %3, ptr noundef %22, ptr noundef %2)
  %.not25 = icmp eq i32 %23, 2
  br i1 %.not25, label %26, label %24

24:                                               ; preds = %21
  call void @df_error_free(ptr noundef %0)
  %25 = icmp eq i32 %23, 5
  br label %30

26:                                               ; preds = %21, %20
  %27 = call { i64, i64 } @stnode_location(ptr noundef %2)
  %28 = extractvalue { i64, i64 } %27, 0
  %29 = extractvalue { i64, i64 } %27, 1
  call void @dfw_set_error_location(ptr noundef %0, i64 %28, i64 %29)
  call void @except_throw(i64 noundef 1, i64 noundef 5, ptr noundef null) #7
  unreachable

30:                                               ; preds = %24, %12
  %.0 = phi i1 [ false, %12 ], [ %25, %24 ]
  call void @llvm.lifetime.end.p0(i64 8, ptr nonnull %5) #8
  ret i1 %.0
}